; Function Attrs: mustprogress nounwind uwtable
define internal void @_ZL12repTextCloseP5UText(ptr nocapture noundef %ut) #9 {
entry:
  %providerProperties = getelementptr inbounds i8, ptr %ut, i64 8
  %0 = load i32, ptr %providerProperties, align 8
  %and = and i32 %0, 32
  %tobool.not = icmp eq i32 %and, 0
  br i1 %tobool.not, label %if.end, label %if.then

if.then:                                          ; preds = %entry
  %context = getelementptr inbounds i8, ptr %ut, i64 72
  %1 = load ptr, ptr %context, align 8
  %isnull = icmp eq ptr %1, null
  br i1 %isnull, label %delete.end, label %delete.notnull

delete.notnull:                                   ; preds = %if.then
  %vtable = load ptr, ptr %1, align 8
  %vfn = getelementptr inbounds i8, ptr %vtable, i64 8
  %2 = load ptr, ptr %vfn, align 8
  tail call void %2(ptr noundef nonnull align 8 dereferenceable(8) %1) #14
  br label %delete.end

delete.end:                                       ; preds = %delete.notnull, %if.then
  store ptr null, ptr %context, align 8
  br label %if.end

if.end:                                           ; preds = %delete.end, %entry
  ret void
}